; Function Attrs: mustprogress nofree norecurse nosync nounwind willreturn memory(argmem: read) uwtable
define noundef float @_ZN5faiss18fvec_inner_productEPKfS1_m(ptr noundef readonly captures(none) %0, ptr noundef readonly captures(none) %1, i64 noundef %2) local_unnamed_addr #0 {
  %.not9 = icmp eq i64 %2, 0
  br i1 %.not9, label %._crit_edge, label %.lr.ph.preheader

.lr.ph.preheader:                                 ; preds = %3
  %min.iters.check = icmp ult i64 %2, 8
  br i1 %min.iters.check, label %.lr.ph.preheader16, label %vector.ph

vector.ph:                                        ; preds = %.lr.ph.preheader
  %n.vec = and i64 %2, -8
  br label %vector.body

vector.body:                                      ; preds = %vector.body, %vector.ph
  %index = phi i64 [ 0, %vector.ph ], [ %index.next, %vector.body ]
  %vec.phi = phi <4 x float> [ zeroinitializer, %vector.ph ], [ %10, %vector.body ]
  %vec.phi12 = phi <4 x float> [ zeroinitializer, %vector.ph ], [ %11, %vector.body ]
  %4 = getelementptr inbounds nuw float, ptr %0, i64 %index
  %5 = getelementptr inbounds nuw i8, ptr %4, i64 16
  %wide.load = load <4 x float>, ptr %4, align 4, !tbaa !4
  %wide.load13 = load <4 x float>, ptr %5, align 4, !tbaa !4
  %6 = getelementptr inbounds nuw float, ptr %1, i64 %index
  %7 = getelementptr inbounds nuw i8, ptr %6, i64 16
  %wide.load14 = load <4 x float>, ptr %6, align 4, !tbaa !4
  %wide.load15 = load <4 x float>, ptr %7, align 4, !tbaa !4
  %8 = fmul fast <4 x float> %wide.load14, %wide.load
  %9 = fmul fast <4 x float> %wide.load15, %wide.load13
  %10 = fadd fast <4 x float> %8, %vec.phi
  %11 = fadd fast <4 x float> %9, %vec.phi12
  %index.next = add nuw i64 %index, 8
  %12 = icmp eq i64 %index.next, %n.vec
  br i1 %12, label %middle.block, label %vector.body, !llvm.loop !30

middle.block:                                     ; preds = %vector.body
  %bin.rdx = fadd fast <4 x float> %11, %10
  %13 = tail call fast float @llvm.vector.reduce.fadd.v4f32(float 0.000000e+00, <4 x float> %bin.rdx)
  %cmp.n = icmp eq i64 %2, %n.vec
  br i1 %cmp.n, label %._crit_edge, label %.lr.ph.preheader16

.lr.ph.preheader16:                               ; preds = %.lr.ph.preheader, %middle.block
  %.011.ph = phi i64 [ 0, %.lr.ph.preheader ], [ %n.vec, %middle.block ]
  %.0810.ph = phi float [ 0.000000e+00, %.lr.ph.preheader ], [ %13, %middle.block ]
  br label %.lr.ph

._crit_edge:                                      ; preds = %.lr.ph, %middle.block, %3
  %.08.lcssa = phi float [ 0.000000e+00, %3 ], [ %13, %middle.block ], [ %19, %.lr.ph ]
  ret float %.08.lcssa

.lr.ph:                                           ; preds = %.lr.ph.preheader16, %.lr.ph
  %.011 = phi i64 [ %20, %.lr.ph ], [ %.011.ph, %.lr.ph.preheader16 ]
  %.0810 = phi float [ %19, %.lr.ph ], [ %.0810.ph, %.lr.ph.preheader16 ]
  %14 = getelementptr inbounds nuw float, ptr %0, i64 %.011
  %15 = load float, ptr %14, align 4, !tbaa !4
  %16 = getelementptr inbounds nuw float, ptr %1, i64 %.011
  %17 = load float, ptr %16, align 4, !tbaa !4
  %18 = fmul fast float %17, %15
  %19 = fadd fast float %18, %.0810
  %20 = add nuw i64 %.011, 1
  %.not = icmp eq i64 %20, %2
  br i1 %.not, label %._crit_edge, label %.lr.ph, !llvm.loop !31
}